(lp1
(lp2
(lp3
(lp4
I9
aI17
aI13
aI18
aI13
aI19
aI0
aI29
aI9
aI20
aI26
aI23
aI7
aI14
aa(lp5
I9
aI20
aI24
aI13
aI21
aI25
aI9
aI0
aI14
aI6
aI12
aI20
aI9
aI24
aa(lp6
I16
aI6
aI28
aI13
aI9
aI24
aI0
aI7
aI24
aI9
aI23
aI27
aI9
aI18
aI18
aa(lp7
I7
aI19
aI29
aI0
aI23
aI9
aI23
aI17
aI6
aa(lp8
I10
aI9
aI6
aI20
aI0
aI26
aI25
aI24
aI8
aI9
aI23
aa(lp9
I24
aI25
aI8
aI9
aI20
aI0
aI15
aI25
aI9
aI23
aI26
aI9
aI24
aa(lp10
I24
aI6
aI22
aI14
aI6
aI9
aI18
aI0
aI11
aI20
aI19
aI31
aI6
aa(lp11
I15
aI9
aI20
aI26
aI0
aI8
aI6
aI26
aI26
aI9
aI24
aa(lp12
I24
aI6
aI17
aI13
aI24
aI19
aI0
aI23
aI26
aI6
aI11
aI9
aI24
aa(lp13
I24
aI6
aI20
aI10
aI19
aI18
aI22
aI14
aI0
aI17
aI19
aI23
aI31
aaa(lp14
(lp15
I29
aI10
aI20
aI26
aI23
aI7
aI14
aI0
aI9
aI17
aI13
aI18
aI13
aI22
aa(lp16
I3
aI24
aI1
aI0
aI14
aI6
aI18
aI20
aI9
aI24
aI0
aI9
aI30
aI24
aI13
aI21
aI25
aI9
aa(lp17
I4
aI24
aI19
aI12
aI1
aI0
aI7
aI24
aI24
aI30
aI27
aI9
aI18
aI18
aI0
aI16
aI6
aI28
aI31
aI12
aI24
aa(lp18
I4
aI24
aI19
aI12
aI0
aI23
aI13
aI23
aI17
aI6
aI0
aI7
aI11
aI25
aa(lp19
I26
aI25
aI24
aI8
aI9
aI15
aI0
aI10
aI23
aI6
aI20
aa(lp20
I24
aI25
aI8
aI9
aI22
aI0
aI8
aI25
aI9
aI23
aI26
aI9
aI24
aa(lp21
I24
aI6
aI22
aI14
aI6
aI9
aI12
aI0
aI11
aI21
aI19
aI31
aI6
aa(lp22
I5
aI13
aI24
aI0
aI15
aI6
aI26
aI26
aI9
aI24
aI0
aI15
aI9
aI26
aI26
aa(lp23
I2
aI24
aI0
aI23
aI26
aI27
aI11
aI9
aI19
aI0
aI29
aI6
aI17
aI13
aI24
aI31
aa(lp24
I3
aI24
aI1
aI0
aI17
aI21
aI23
aI31
aI0
aI24
aI6
aI20
aI10
aI19
aI30
aI22
aI14
aaaaccollections
defaultdict
p25
(tRp26
S' '
I0
sS'.'
I1
sS'D'
I2
sS'M'
I3
sS'P'
I4
sS'S'
I5
sS'a'
I6
sS'c'
I7
sS'b'
I8
sS'e'
I9
sS'd'
I10
sS'g'
I11
sS'f'
I12
sS'i'
I13
sS'h'
I14
sS'k'
I15
sS'j'
I16
sS'm'
I17
sS'l'
I18
sS'o'
I19
sS'n'
I20
sS'q'
I21
sS'p'
I22
sS's'
I23
sS'r'
I24
sS'u'
I25
sS't'
I26
sS'w'
I27
sS'v'
I28
sS'y'
I29
sS'x'
I30
sS'z'
I31
sag25
(tRp27
I0
S' '
sI1
S'.'
sI2
S'D'
sI3
S'M'
sI4
S'P'
sI5
S'S'
sI6
S'a'
sI7
S'c'
sI8
S'b'
sI9
S'e'
sI10
S'd'
sI11
S'g'
sI12
S'f'
sI13
S'i'
sI14
S'h'
sI15
S'k'
sI16
S'j'
sI17
S'm'
sI18
S'l'
sI19
S'o'
sI20
S'n'
sI21
S'q'
sI22
S'p'
sI23
S's'
sI24
S'r'
sI25
S'u'
sI26
S't'
sI27
S'w'
sI28
S'v'
sI29
S'y'
sI30
S'x'
sI31
S'z'
sa.